; Function Attrs: nounwind uwtable
define internal i32 @zoneplate_query_formats(ptr noundef %0, ptr noundef %1, ptr noundef %2) #1 {
  %4 = tail call ptr @ff_make_formats_list_singleton(i32 noundef 2) #20
  %5 = tail call i32 @ff_set_common_color_ranges2(ptr noundef %0, ptr noundef %1, ptr noundef %2, ptr noundef %4) #20
  %.not = icmp eq i32 %5, 0
  br i1 %.not, label %6, label %8

6:                                                ; preds = %3
  %7 = tail call i32 @ff_set_common_formats_from_list2(ptr noundef %0, ptr noundef %1, ptr noundef %2, ptr noundef nonnull @zoneplate_pix_fmts) #20
  br label %8

8:                                                ; preds = %3, %6
  %.0 = phi i32 [ %7, %6 ], [ %5, %3 ]
  ret i32 %.0
}